target datalayout = "e-m:e-p270:32:32-p271:32:32-p272:64:64-i64:64-i128:128-f80:128-n8:16:32:64-S128"
target triple = "x86_64-pc-linux-gnu"

%"struct.duckdb::MetadataHandle" = type { %"struct.duckdb::MetadataPointer", %"class.duckdb::BufferHandle" }
%"struct.duckdb::MetadataPointer" = type { i64 }
%"class.duckdb::BufferHandle" = type { %"class.duckdb::shared_ptr", %"class.duckdb::optional_ptr" }
%"class.duckdb::shared_ptr" = type { %"class.std::shared_ptr" }
%"class.std::shared_ptr" = type { %"class.std::__shared_ptr" }
%"class.std::__shared_ptr" = type { ptr, %"class.std::__shared_count" }
%"class.std::__shared_count" = type { ptr }
%"class.duckdb::optional_ptr" = type { ptr }
%"class.duckdb::optional_ptr.85" = type { ptr }
%"class.duckdb::MetadataWriter" = type { %"class.duckdb::WriteStream", ptr, %"struct.duckdb::MetadataHandle", %"struct.duckdb::MetadataPointer", %"class.duckdb::optional_ptr.85", i64, i64 }
%"class.duckdb::WriteStream" = type { ptr }

@_ZTVN6duckdb11WriteStreamE = linkonce_odr unnamed_addr constant { [5 x ptr] } { [5 x ptr] [ptr null, ptr @_ZTIN6duckdb11WriteStreamE, ptr @__cxa_pure_virtual, ptr @_ZN6duckdb11WriteStreamD2Ev, ptr @_ZN6duckdb11WriteStreamD0Ev] }, comdat, align 8

; Function Attrs: mustprogress nounwind uwtable
define linkonce_odr void @_ZN6duckdb11WriteStreamD2Ev(ptr noundef nonnull align 8 dereferenceable(8) %0) unnamed_addr #0 comdat align 2 {
  %2 = alloca ptr, align 8
  store ptr %0, ptr %2, align 8, !tbaa !138
  ret void
}

; Function Attrs: inlinehint mustprogress uwtable
define linkonce_odr void @_ZN6duckdb14MetadataHandleC2Ev(ptr noundef nonnull align 8 dereferenceable(32) %0) unnamed_addr #4 comdat align 2 {
  %2 = alloca ptr, align 8
  store ptr %0, ptr %2, align 8, !tbaa !106
  %3 = load ptr, ptr %2, align 8
  %4 = getelementptr inbounds nuw %"struct.duckdb::MetadataHandle", ptr %3, i32 0, i32 1
  call void @_ZN6duckdb12BufferHandleC1Ev(ptr noundef nonnull align 8 dereferenceable(24) %4)
  ret void
}

; Function Attrs: inlinehint mustprogress nounwind uwtable
define linkonce_odr void @_ZN6duckdb11WriteStreamC2Ev(ptr noundef nonnull align 8 dereferenceable(8) %0) unnamed_addr #1 comdat align 2 {
  %2 = alloca ptr, align 8
  store ptr %0, ptr %2, align 8, !tbaa !138
  %3 = load ptr, ptr %2, align 8
  store ptr getelementptr inbounds inrange(-16, 24) ({ [5 x ptr] }, ptr @_ZTVN6duckdb11WriteStreamE, i32 0, i32 0, i32 2), ptr %3, align 8, !tbaa !58
  ret void
}

; Function Attrs: mustprogress uwtable
define void @_ZN6duckdb14MetadataWriterC2ERNS_15MetadataManagerENS_12optional_ptrINS_6vectorINS_16MetaBlockPointerELb1EEELb1EEE(ptr noundef nonnull align 8 dereferenceable(80) %0, ptr noundef nonnull align 8 dereferenceable(128) %1, ptr %2) unnamed_addr #2 align 2 personality ptr @__gxx_personality_v0 {
  %4 = alloca %"class.duckdb::optional_ptr.85", align 8
  %5 = alloca ptr, align 8
  %6 = alloca ptr, align 8
  %7 = alloca ptr, align 8
  %8 = alloca i32, align 4
  %9 = getelementptr inbounds nuw %"class.duckdb::optional_ptr.85", ptr %4, i32 0, i32 0
  store ptr %2, ptr %9, align 8
  store ptr %0, ptr %5, align 8, !tbaa !229
  store ptr %1, ptr %6, align 8, !tbaa !3
  %10 = load ptr, ptr %5, align 8
  call void @_ZN6duckdb11WriteStreamC2Ev(ptr noundef nonnull align 8 dereferenceable(8) %10) #19
  store ptr getelementptr inbounds inrange(-16, 32) ({ [6 x ptr] }, ptr @_ZTVN6duckdb14MetadataWriterE, i32 0, i32 0, i32 2), ptr %10, align 8, !tbaa !58
  %11 = getelementptr inbounds nuw %"class.duckdb::MetadataWriter", ptr %10, i32 0, i32 1
  %12 = load ptr, ptr %6, align 8, !tbaa !3
  store ptr %12, ptr %11, align 8, !tbaa !3
  %13 = getelementptr inbounds nuw %"class.duckdb::MetadataWriter", ptr %10, i32 0, i32 2
  invoke void @_ZN6duckdb14MetadataHandleC2Ev(ptr noundef nonnull align 8 dereferenceable(32) %13)
          to label %14 unwind label %18

14:                                               ; preds = %3
  %15 = getelementptr inbounds nuw %"class.duckdb::MetadataWriter", ptr %10, i32 0, i32 4
  call void @llvm.memcpy.p0.p0.i64(ptr align 8 %15, ptr align 8 %4, i64 8, i1 false), !tbaa.struct !215
  %16 = getelementptr inbounds nuw %"class.duckdb::MetadataWriter", ptr %10, i32 0, i32 5
  store i64 0, ptr %16, align 8, !tbaa !231
  %17 = getelementptr inbounds nuw %"class.duckdb::MetadataWriter", ptr %10, i32 0, i32 6
  store i64 0, ptr %17, align 8, !tbaa !234
  ret void

18:                                               ; preds = %3
  %19 = landingpad { ptr, i32 }
          cleanup
  %20 = extractvalue { ptr, i32 } %19, 0
  store ptr %20, ptr %7, align 8
  %21 = extractvalue { ptr, i32 } %19, 1
  store i32 %21, ptr %8, align 4
  call void @_ZN6duckdb11WriteStreamD2Ev(ptr noundef nonnull align 8 dereferenceable(8) %10) #19
  br label %22

22:                                               ; preds = %18
  %23 = load ptr, ptr %7, align 8
  %24 = load i32, ptr %8, align 4
  %25 = insertvalue { ptr, i32 } poison, ptr %23, 0
  %26 = insertvalue { ptr, i32 } %25, i32 %24, 1
  resume { ptr, i32 } %26
}