; Function Attrs: mustprogress uwtable
define void @_ZN6duckdb14MetadataWriterC2ERNS_15MetadataManagerENS_12optional_ptrINS_6vectorINS_16MetaBlockPointerELb1EEELb1EEE(ptr noundef nonnull align 8 dereferenceable(80) initializes((0, 16)) %0, ptr noundef nonnull align 8 dereferenceable(128) %1, ptr %2) unnamed_addr #2 align 2 personality ptr @__gxx_personality_v0 {
_ZN6duckdb14MetadataHandleC2Ev.exit:
  store ptr getelementptr inbounds nuw inrange(-16, 32) (i8, ptr @_ZTVN6duckdb14MetadataWriterE, i64 16), ptr %0, align 8, !tbaa !47
  %3 = getelementptr inbounds nuw i8, ptr %0, i64 8
  store ptr %1, ptr %3, align 8, !tbaa !178
  %4 = getelementptr inbounds nuw i8, ptr %0, i64 24
  tail call void @_ZN6duckdb12BufferHandleC1Ev(ptr noundef nonnull align 8 dereferenceable(24) %4)
  %5 = getelementptr inbounds nuw i8, ptr %0, i64 56
  store ptr %2, ptr %5, align 8, !tbaa !192
  %6 = getelementptr inbounds nuw i8, ptr %0, i64 64
  tail call void @llvm.memset.p0.i64(ptr noundef nonnull align 8 dereferenceable(16) %6, i8 0, i64 16, i1 false)
  ret void
}